; ModuleID = 'source-C-CXX/61/3249.c'
source_filename = "source-C-CXX/61/3249.c"
target datalayout = "e-m:e-p270:32:32-p271:32:32-p272:64:64-i64:64-f80:128-n8:16:32:64-S128"
target triple = "x86_64-pc-linux-gnu"

; Function Attrs: nounwind sspstrong uwtable
define dso_local i32 @main() local_unnamed_addr #0 {
  %1 = alloca [200 x i8], align 16
  %2 = alloca [200 x i8], align 16
  %3 = getelementptr inbounds [200 x i8], [200 x i8]* %1, i64 0, i64 0
  call void @llvm.lifetime.start.p0i8(i64 200, i8* nonnull %3) #5
  %4 = getelementptr inbounds [200 x i8], [200 x i8]* %2, i64 0, i64 0
  call void @llvm.lifetime.start.p0i8(i64 200, i8* nonnull %4) #5
  %5 = call i32 (i8*, ...) bitcast (i32 (...)* @gets to i32 (i8*, ...)*)(i8* nonnull %3) #5
  %6 = call i64 @strlen(i8* noundef nonnull %3) #6
  %7 = trunc i64 %6 to i32
  %8 = icmp sgt i32 %7, 0
  br i1 %8, label %9, label %35

9:                                                ; preds = %0
  %10 = and i64 %6, 4294967295
  br label %11

11:                                               ; preds = %9, %31
  %12 = phi i64 [ 0, %9 ], [ %32, %31 ]
  %13 = phi i32 [ 0, %9 ], [ %33, %31 ]
  %14 = getelementptr inbounds [200 x i8], [200 x i8]* %1, i64 0, i64 %12
  %15 = load i8, i8* %14, align 1, !tbaa !5
  %16 = icmp eq i8 %15, 32
  br i1 %16, label %22, label %17

17:                                               ; preds = %11
  %18 = add nsw i32 %13, 1
  %19 = sext i32 %13 to i64
  %20 = getelementptr inbounds [200 x i8], [200 x i8]* %2, i64 0, i64 %19
  store i8 %15, i8* %20, align 1, !tbaa !5
  %21 = add nuw nsw i64 %12, 1
  br label %31

22:                                               ; preds = %11
  %23 = add nuw nsw i64 %12, 1
  %24 = getelementptr inbounds [200 x i8], [200 x i8]* %1, i64 0, i64 %23
  %25 = load i8, i8* %24, align 1, !tbaa !5
  %26 = icmp eq i8 %25, 32
  br i1 %26, label %31, label %27

27:                                               ; preds = %22
  %28 = add nsw i32 %13, 1
  %29 = sext i32 %13 to i64
  %30 = getelementptr inbounds [200 x i8], [200 x i8]* %2, i64 0, i64 %29
  store i8 32, i8* %30, align 1, !tbaa !5
  br label %31

31:                                               ; preds = %17, %27, %22
  %32 = phi i64 [ %21, %17 ], [ %23, %27 ], [ %23, %22 ]
  %33 = phi i32 [ %18, %17 ], [ %28, %27 ], [ %13, %22 ]
  %34 = icmp eq i64 %32, %10
  br i1 %34, label %35, label %11, !llvm.loop !8

35:                                               ; preds = %31, %0
  %36 = phi i32 [ 0, %0 ], [ %33, %31 ]
  %37 = sext i32 %36 to i64
  %38 = getelementptr inbounds [200 x i8], [200 x i8]* %2, i64 0, i64 %37
  store i8 0, i8* %38, align 1, !tbaa !5
  %39 = call i32 @puts(i8* nonnull %4)
  call void @llvm.lifetime.end.p0i8(i64 200, i8* nonnull %4) #5
  call void @llvm.lifetime.end.p0i8(i64 200, i8* nonnull %3) #5
  ret i32 0
}

; Function Attrs: argmemonly mustprogress nofree nosync nounwind willreturn
declare void @llvm.lifetime.start.p0i8(i64 immarg, i8* nocapture) #1

declare i32 @gets(...) local_unnamed_addr #2

; Function Attrs: argmemonly mustprogress nofree nounwind readonly willreturn
declare i64 @strlen(i8* nocapture) local_unnamed_addr #3

; Function Attrs: nofree nounwind
declare noundef i32 @puts(i8* nocapture noundef readonly) local_unnamed_addr #4

; Function Attrs: argmemonly mustprogress nofree nosync nounwind willreturn
declare void @llvm.lifetime.end.p0i8(i64 immarg, i8* nocapture) #1


!llvm.module.flags = !{!0, !1, !2, !3}
!llvm.ident = !{!4}

!0 = !{i32 1, !"wchar_size", i32 4}
!1 = !{i32 7, !"PIC Level", i32 2}
!2 = !{i32 7, !"PIE Level", i32 2}
!3 = !{i32 7, !"uwtable", i32 1}
!4 = !{!"clang version 13.0.0"}
!5 = !{!6, !6, i64 0}
!6 = !{!"omnipotent char", !7, i64 0}
!7 = !{!"Simple C/C++ TBAA"}
!8 = distinct !{!8, !9}
!9 = !{!"llvm.loop.mustprogress"}
